; Function Attrs: mustprogress uwtable
define noundef zeroext i1 @_ZNK9grpc_core42EventEngineClientChannelDNSResolverFactory10IsValidUriERKNS_3URIE(ptr nonnull readnone align 8 captures(none) %0, ptr noundef nonnull readonly align 8 captures(none) dereferenceable(200) %1) unnamed_addr #3 align 2 personality ptr @__gxx_personality_v0 {
  %3 = alloca %"class.absl::lts_20240722::log_internal::LogMessage", align 8
  %4 = getelementptr inbounds nuw i8, ptr %1, i64 72
  %5 = load i64, ptr %4, align 8, !tbaa !3
  %.not.i.i = icmp eq i64 %5, 0
  br i1 %.not.i.i, label %.critedge, label %_ZN4absl12lts_2024072210StartsWithESt17basic_string_viewIcSt11char_traitsIcEES4_.exit.i

_ZN4absl12lts_2024072210StartsWithESt17basic_string_viewIcSt11char_traitsIcEES4_.exit.i: ; preds = %2
  %6 = getelementptr inbounds nuw i8, ptr %1, i64 64
  %7 = load ptr, ptr %6, align 8, !tbaa !11
  %lhsc = load i8, ptr %7, align 1
  %8 = icmp eq i8 %lhsc, 47
  %9 = icmp eq i64 %5, 1
  %or.cond = and i1 %9, %8
  br i1 %or.cond, label %.critedge, label %_ZN4absl12lts_2024072211StripPrefixESt17basic_string_viewIcSt11char_traitsIcEES4_.exit.thread

.critedge:                                        ; preds = %2, %_ZN4absl12lts_2024072210StartsWithESt17basic_string_viewIcSt11char_traitsIcEES4_.exit.i
  call void @llvm.lifetime.start.p0(i64 16, ptr nonnull %3) #30
  call void @_ZN4absl12lts_2024072212log_internal10LogMessageC1EPKciNS2_8ErrorTagE(ptr noundef nonnull align 8 dereferenceable(16) %3, ptr noundef nonnull @.str.1, i32 noundef 558) #31
  invoke void @_ZN4absl12lts_2024072212log_internal10LogMessage19CopyToEncodedBufferILNS2_10StringTypeE0EEEvSt17basic_string_viewIcSt11char_traitsIcEE(ptr noundef nonnull align 8 dereferenceable(16) %3, i64 34, ptr nonnull @.str.2)
          to label %_ZN4absl12lts_2024072212log_internal10LogMessagelsILi35EEERS2_RAT__Kc.exit unwind label %10

_ZN4absl12lts_2024072212log_internal10LogMessagelsILi35EEERS2_RAT__Kc.exit: ; preds = %.critedge
  call void @_ZN4absl12lts_2024072212log_internal10LogMessageD1Ev(ptr noundef nonnull align 8 dereferenceable(16) %3) #32
  call void @llvm.lifetime.end.p0(i64 16, ptr nonnull %3) #30
  br label %_ZN4absl12lts_2024072211StripPrefixESt17basic_string_viewIcSt11char_traitsIcEES4_.exit.thread

10:                                               ; preds = %.critedge
  %11 = landingpad { ptr, i32 }
          cleanup
  call void @_ZN4absl12lts_2024072212log_internal10LogMessageD1Ev(ptr noundef nonnull align 8 dereferenceable(16) %3) #32
  call void @llvm.lifetime.end.p0(i64 16, ptr nonnull %3) #30
  resume { ptr, i32 } %11

_ZN4absl12lts_2024072211StripPrefixESt17basic_string_viewIcSt11char_traitsIcEES4_.exit.thread: ; preds = %_ZN4absl12lts_2024072210StartsWithESt17basic_string_viewIcSt11char_traitsIcEES4_.exit.i, %_ZN4absl12lts_2024072212log_internal10LogMessagelsILi35EEERS2_RAT__Kc.exit
  %.0 = phi i1 [ false, %_ZN4absl12lts_2024072212log_internal10LogMessagelsILi35EEERS2_RAT__Kc.exit ], [ true, %_ZN4absl12lts_2024072210StartsWithESt17basic_string_viewIcSt11char_traitsIcEES4_.exit.i ]
  ret i1 %.0
}